target datalayout = "e-m:e-p270:32:32-p271:32:32-p272:64:64-i64:64-i128:128-f80:128-n8:16:32:64-S128"
target triple = "x86_64-pc-linux-gnu"

%class.CryptData = type { [4 x %"struct.CryptData::KDF3CacheItem"], i32, [4 x i8], [4 x %"struct.CryptData::KDF5CacheItem"], i32, i32, %class.Rijndael, [256 x i32], [256 x i8], [4 x i32], [3 x i8], [4 x i16], [4 x i8] }
%"struct.CryptData::KDF3CacheItem" = type { %class.SecPassword, [8 x i8], [16 x i8], [16 x i8], i8, [7 x i8] }
%class.SecPassword = type <{ %"class.std::vector", i8, [7 x i8] }>
%"class.std::vector" = type { %"struct.std::_Vector_base" }
%"struct.std::_Vector_base" = type { %"struct.std::_Vector_base<wchar_t, std::allocator<wchar_t>>::_Vector_impl" }
%"struct.std::_Vector_base<wchar_t, std::allocator<wchar_t>>::_Vector_impl" = type { %"struct.std::_Vector_base<wchar_t, std::allocator<wchar_t>>::_Vector_impl_data" }
%"struct.std::_Vector_base<wchar_t, std::allocator<wchar_t>>::_Vector_impl_data" = type { ptr, ptr, ptr }
%"struct.CryptData::KDF5CacheItem" = type { %class.SecPassword, [16 x i8], [32 x i8], i32, [32 x i8], [32 x i8], [4 x i8] }
%class.Rijndael = type { i8, i32, [16 x i8], [15 x [4 x [4 x i8]]] }

; Function Attrs: mustprogress nounwind uwtable
define void @_ZN9CryptData8SetKey13EPKc(ptr noundef nonnull align 8 dereferenceable(2516) %0, ptr noundef %1) #0 align 2 {
  %3 = alloca ptr, align 8
  %4 = alloca ptr, align 8
  %5 = alloca i64, align 8
  %6 = alloca i8, align 1
  store ptr %0, ptr %3, align 8
  store ptr %1, ptr %4, align 8
  %7 = load ptr, ptr %3, align 8
  %8 = getelementptr inbounds %class.CryptData, ptr %7, i32 0, i32 10
  %9 = getelementptr inbounds [3 x i8], ptr %8, i64 0, i64 2
  store i8 0, ptr %9, align 2
  %10 = getelementptr inbounds %class.CryptData, ptr %7, i32 0, i32 10
  %11 = getelementptr inbounds [3 x i8], ptr %10, i64 0, i64 1
  store i8 0, ptr %11, align 1
  %12 = getelementptr inbounds %class.CryptData, ptr %7, i32 0, i32 10
  %13 = getelementptr inbounds [3 x i8], ptr %12, i64 0, i64 0
  store i8 0, ptr %13, align 8
  store i64 0, ptr %5, align 8
  br label %14

14:                                               ; preds = %64, %2
  %15 = load ptr, ptr %4, align 8
  %16 = load i64, ptr %5, align 8
  %17 = getelementptr inbounds i8, ptr %15, i64 %16
  %18 = load i8, ptr %17, align 1
  %19 = sext i8 %18 to i32
  %20 = icmp ne i32 %19, 0
  br i1 %20, label %21, label %67

21:                                               ; preds = %14
  %22 = load ptr, ptr %4, align 8
  %23 = load i64, ptr %5, align 8
  %24 = getelementptr inbounds i8, ptr %22, i64 %23
  %25 = load i8, ptr %24, align 1
  store i8 %25, ptr %6, align 1
  %26 = load i8, ptr %6, align 1
  %27 = zext i8 %26 to i32
  %28 = getelementptr inbounds %class.CryptData, ptr %7, i32 0, i32 10
  %29 = getelementptr inbounds [3 x i8], ptr %28, i64 0, i64 0
  %30 = load i8, ptr %29, align 8
  %31 = zext i8 %30 to i32
  %32 = add nsw i32 %31, %27
  %33 = trunc i32 %32 to i8
  store i8 %33, ptr %29, align 8
  %34 = load i8, ptr %6, align 1
  %35 = zext i8 %34 to i32
  %36 = getelementptr inbounds %class.CryptData, ptr %7, i32 0, i32 10
  %37 = getelementptr inbounds [3 x i8], ptr %36, i64 0, i64 1
  %38 = load i8, ptr %37, align 1
  %39 = zext i8 %38 to i32
  %40 = xor i32 %39, %35
  %41 = trunc i32 %40 to i8
  store i8 %41, ptr %37, align 1
  %42 = load i8, ptr %6, align 1
  %43 = zext i8 %42 to i32
  %44 = getelementptr inbounds %class.CryptData, ptr %7, i32 0, i32 10
  %45 = getelementptr inbounds [3 x i8], ptr %44, i64 0, i64 2
  %46 = load i8, ptr %45, align 2
  %47 = zext i8 %46 to i32
  %48 = add nsw i32 %47, %43
  %49 = trunc i32 %48 to i8
  store i8 %49, ptr %45, align 2
  %50 = getelementptr inbounds %class.CryptData, ptr %7, i32 0, i32 10
  %51 = getelementptr inbounds [3 x i8], ptr %50, i64 0, i64 2
  %52 = load i8, ptr %51, align 2
  %53 = zext i8 %52 to i32
  %54 = shl i32 %53, 1
  %55 = getelementptr inbounds %class.CryptData, ptr %7, i32 0, i32 10
  %56 = getelementptr inbounds [3 x i8], ptr %55, i64 0, i64 2
  %57 = load i8, ptr %56, align 2
  %58 = zext i8 %57 to i32
  %59 = ashr i32 %58, 7
  %60 = or i32 %54, %59
  %61 = trunc i32 %60 to i8
  %62 = getelementptr inbounds %class.CryptData, ptr %7, i32 0, i32 10
  %63 = getelementptr inbounds [3 x i8], ptr %62, i64 0, i64 2
  store i8 %61, ptr %63, align 2
  br label %64

64:                                               ; preds = %21
  %65 = load i64, ptr %5, align 8
  %66 = add i64 %65, 1
  store i64 %66, ptr %5, align 8
  br label %14, !llvm.loop !4

67:                                               ; preds = %14
  ret void
}