; Function Attrs: mustprogress nofree norecurse nosync nounwind memory(argmem: readwrite) uwtable
define void @_ZN9CryptData8SetKey13EPKc(ptr noundef nonnull writeonly align 8 captures(none) dereferenceable(2516) initializes((2504, 2507)) %0, ptr noundef readonly captures(none) %1) local_unnamed_addr #0 align 2 {
  %3 = getelementptr inbounds nuw i8, ptr %0, i64 2504
  %4 = getelementptr inbounds nuw i8, ptr %0, i64 2506
  store i8 0, ptr %4, align 2
  %5 = getelementptr inbounds nuw i8, ptr %0, i64 2505
  store i8 0, ptr %5, align 1
  store i8 0, ptr %3, align 8
  %6 = load i8, ptr %1, align 1
  %.not10 = icmp eq i8 %6, 0
  br i1 %.not10, label %._crit_edge, label %.lr.ph

.lr.ph:                                           ; preds = %2, %.lr.ph
  %7 = phi i8 [ %17, %.lr.ph ], [ %6, %2 ]
  %.011 = phi i64 [ %15, %.lr.ph ], [ 0, %2 ]
  %8 = phi i8 [ %11, %.lr.ph ], [ 0, %2 ]
  %9 = phi i8 [ %12, %.lr.ph ], [ 0, %2 ]
  %10 = phi i8 [ %14, %.lr.ph ], [ 0, %2 ]
  %11 = add i8 %8, %7
  store i8 %11, ptr %3, align 8
  %12 = xor i8 %9, %7
  store i8 %12, ptr %5, align 1
  %13 = add i8 %10, %7
  %14 = tail call i8 @llvm.fshl.i8(i8 %13, i8 %13, i8 1)
  store i8 %14, ptr %4, align 2
  %15 = add i64 %.011, 1
  %16 = getelementptr inbounds i8, ptr %1, i64 %15
  %17 = load i8, ptr %16, align 1
  %.not = icmp eq i8 %17, 0
  br i1 %.not, label %._crit_edge, label %.lr.ph, !llvm.loop !4

._crit_edge:                                      ; preds = %.lr.ph, %2
  ret void
}